; Function Attrs: nounwind uwtable
define void @validateOutcome(i32 noundef %0, ptr noundef %1) local_unnamed_addr #3 {
  %3 = icmp ugt i32 %0, 1
  br i1 %3, label %4, label %QuESTAssert.exit

4:                                                ; preds = %2
  tail call void @invalidQuESTInputError(ptr noundef nonnull @.str.30, ptr noundef %1)
  br label %QuESTAssert.exit

QuESTAssert.exit:                                 ; preds = %2, %4
  ret void
}